target datalayout = "e-m:e-p270:32:32-p271:32:32-p272:64:64-i64:64-i128:128-f80:128-n8:16:32:64-S128"
target triple = "x86_64-pc-linux-gnu"

%"class.cv::Rect_" = type { i32, i32, i32, i32 }
%"struct.cv::face::FacemarkLBF::Params" = type { double, %"class.std::__cxx11::basic_string", i8, i32, i32, i32, i32, i32, double, %"class.std::__cxx11::basic_string", i8, i32, %"class.std::vector", %"class.std::vector.3", [2 x %"class.std::vector"], %"class.cv::Rect_" }
%"class.std::__cxx11::basic_string" = type { %"struct.std::__cxx11::basic_string<char>::_Alloc_hider", i64, %union.anon }
%"struct.std::__cxx11::basic_string<char>::_Alloc_hider" = type { ptr }
%union.anon = type { i64, [8 x i8] }
%"class.std::vector" = type { %"struct.std::_Vector_base" }
%"struct.std::_Vector_base" = type { %"struct.std::_Vector_base<int, std::allocator<int>>::_Vector_impl" }
%"struct.std::_Vector_base<int, std::allocator<int>>::_Vector_impl" = type { %"struct.std::_Vector_base<int, std::allocator<int>>::_Vector_impl_data" }
%"struct.std::_Vector_base<int, std::allocator<int>>::_Vector_impl_data" = type { ptr, ptr, ptr }
%"class.std::vector.3" = type { %"struct.std::_Vector_base.4" }
%"struct.std::_Vector_base.4" = type { %"struct.std::_Vector_base<double, std::allocator<double>>::_Vector_impl" }
%"struct.std::_Vector_base<double, std::allocator<double>>::_Vector_impl" = type { %"struct.std::_Vector_base<double, std::allocator<double>>::_Vector_impl_data" }
%"struct.std::_Vector_base<double, std::allocator<double>>::_Vector_impl_data" = type { ptr, ptr, ptr }
%"class.std::__shared_count" = type { ptr }
%"class.cv::face::FacemarkLBFImpl" = type { %"class.cv::face::FacemarkLBF", %"struct.cv::face::FacemarkLBF::Params", %"class.cv::CascadeClassifier", ptr, ptr, %"class.std::vector.20", %"class.std::vector.25", %"class.std::vector.30", %"class.std::vector.25", i8, %"class.cv::face::FacemarkLBFImpl::Regressor" }
%"class.cv::face::FacemarkLBF" = type { %"class.cv::face::FacemarkTrain" }
%"class.cv::face::FacemarkTrain" = type { %"class.cv::face::Facemark" }
%"class.cv::face::Facemark" = type { %"class.cv::Algorithm" }
%"class.cv::Algorithm" = type { ptr }
%"class.cv::CascadeClassifier" = type { %"struct.cv::Ptr.16" }
%"struct.cv::Ptr.16" = type { %"class.std::shared_ptr.17" }
%"class.std::shared_ptr.17" = type { %"class.std::__shared_ptr.18" }
%"class.std::__shared_ptr.18" = type { ptr, %"class.std::__shared_count" }
%"class.std::vector.20" = type { %"struct.std::_Vector_base.21" }
%"struct.std::_Vector_base.21" = type { %"struct.std::_Vector_base<std::vector<cv::Point_<float>>, std::allocator<std::vector<cv::Point_<float>>>>::_Vector_impl" }
%"struct.std::_Vector_base<std::vector<cv::Point_<float>>, std::allocator<std::vector<cv::Point_<float>>>>::_Vector_impl" = type { %"struct.std::_Vector_base<std::vector<cv::Point_<float>>, std::allocator<std::vector<cv::Point_<float>>>>::_Vector_impl_data" }
%"struct.std::_Vector_base<std::vector<cv::Point_<float>>, std::allocator<std::vector<cv::Point_<float>>>>::_Vector_impl_data" = type { ptr, ptr, ptr }
%"class.std::vector.30" = type { %"struct.std::_Vector_base.31" }
%"struct.std::_Vector_base.31" = type { %"struct.std::_Vector_base<cv::face::FacemarkLBF::BBox, std::allocator<cv::face::FacemarkLBF::BBox>>::_Vector_impl" }
%"struct.std::_Vector_base<cv::face::FacemarkLBF::BBox, std::allocator<cv::face::FacemarkLBF::BBox>>::_Vector_impl" = type { %"struct.std::_Vector_base<cv::face::FacemarkLBF::BBox, std::allocator<cv::face::FacemarkLBF::BBox>>::_Vector_impl_data" }
%"struct.std::_Vector_base<cv::face::FacemarkLBF::BBox, std::allocator<cv::face::FacemarkLBF::BBox>>::_Vector_impl_data" = type { ptr, ptr, ptr }
%"class.std::vector.25" = type { %"struct.std::_Vector_base.26" }
%"struct.std::_Vector_base.26" = type { %"struct.std::_Vector_base<cv::Mat, std::allocator<cv::Mat>>::_Vector_impl" }
%"struct.std::_Vector_base<cv::Mat, std::allocator<cv::Mat>>::_Vector_impl" = type { %"struct.std::_Vector_base<cv::Mat, std::allocator<cv::Mat>>::_Vector_impl_data" }
%"struct.std::_Vector_base<cv::Mat, std::allocator<cv::Mat>>::_Vector_impl_data" = type { ptr, ptr, ptr }
%"class.cv::face::FacemarkLBFImpl::Regressor" = type { i32, i32, %"class.cv::Mat", %"class.std::vector.35", %"class.std::vector.25" }
%"class.cv::Mat" = type { i32, i32, i32, i32, ptr, ptr, ptr, ptr, ptr, ptr, %"struct.cv::MatSize", %"struct.cv::MatStep" }
%"struct.cv::MatSize" = type { ptr }
%"struct.cv::MatStep" = type { ptr, [2 x i64] }
%"class.std::vector.35" = type { %"struct.std::_Vector_base.36" }
%"struct.std::_Vector_base.36" = type { %"struct.std::_Vector_base<cv::face::FacemarkLBFImpl::RandomForest, std::allocator<cv::face::FacemarkLBFImpl::RandomForest>>::_Vector_impl" }
%"struct.std::_Vector_base<cv::face::FacemarkLBFImpl::RandomForest, std::allocator<cv::face::FacemarkLBFImpl::RandomForest>>::_Vector_impl" = type { %"struct.std::_Vector_base<cv::face::FacemarkLBFImpl::RandomForest, std::allocator<cv::face::FacemarkLBFImpl::RandomForest>>::_Vector_impl_data" }
%"struct.std::_Vector_base<cv::face::FacemarkLBFImpl::RandomForest, std::allocator<cv::face::FacemarkLBFImpl::RandomForest>>::_Vector_impl_data" = type { ptr, ptr, ptr }

; Function Attrs: mustprogress uwtable
define hidden void @_ZNK2cv4face15FacemarkLBFImpl5writeERNS_11FileStorageE(ptr noundef nonnull align 8 dereferenceable(520) %0, ptr noundef nonnull align 8 dereferenceable(64) %1) unnamed_addr #4 align 2 {
  %3 = alloca ptr, align 8
  %4 = alloca ptr, align 8
  store ptr %0, ptr %3, align 8, !tbaa !84
  store ptr %1, ptr %4, align 8, !tbaa !69
  %5 = load ptr, ptr %3, align 8
  %6 = getelementptr inbounds nuw %"class.cv::face::FacemarkLBFImpl", ptr %5, i32 0, i32 1
  %7 = load ptr, ptr %4, align 8, !tbaa !69
  call void @_ZNK2cv4face11FacemarkLBF6Params5writeERNS_11FileStorageE(ptr noundef nonnull align 8 dereferenceable(224) %6, ptr noundef nonnull align 8 dereferenceable(64) %7)
  ret void
}

; Function Attrs: uwtable
define hidden void @_ZTv0_n40_NK2cv4face15FacemarkLBFImpl5writeERNS_11FileStorageE(ptr noundef %0, ptr noundef nonnull align 8 dereferenceable(64) %1) unnamed_addr #0 align 2 {
  %3 = alloca ptr, align 8
  %4 = alloca ptr, align 8
  store ptr %0, ptr %3, align 8, !tbaa !84
  store ptr %1, ptr %4, align 8, !tbaa !69
  %5 = load ptr, ptr %3, align 8
  %6 = load ptr, ptr %5, align 8, !tbaa !71
  %7 = getelementptr inbounds i8, ptr %6, i64 -40
  %8 = load i64, ptr %7, align 8
  %9 = getelementptr inbounds i8, ptr %5, i64 %8
  %10 = load ptr, ptr %4, align 8
  tail call void @_ZNK2cv4face15FacemarkLBFImpl5writeERNS_11FileStorageE(ptr noundef nonnull align 8 dereferenceable(520) %9, ptr noundef nonnull align 8 dereferenceable(64) %10)
  ret void
}